; ModuleID = '4/2046.c'
source_filename = "4/2046.c"
target datalayout = "e-m:e-p270:32:32-p271:32:32-p272:64:64-i64:64-f80:128-n8:16:32:64-S128"
target triple = "x86_64-pc-linux-gnu"

@.str = private unnamed_addr constant [5 x i8] c"%d%d\00", align 1
@.str.1 = private unnamed_addr constant [3 x i8] c"%d\00", align 1
@.str.2 = private unnamed_addr constant [4 x i8] c"%d\0A\00", align 1

; Function Attrs: noinline nounwind uwtable
define dso_local i32 @main() #0 {
  %1 = alloca i32, align 4
  %2 = alloca i32, align 4
  %3 = alloca i32, align 4
  %4 = alloca i32, align 4
  %5 = alloca i32, align 4
  %6 = alloca i32, align 4
  %7 = alloca [100 x i32*], align 16
  store i32 0, i32* %1, align 4
  %8 = call i32 (i8*, ...) @__isoc99_scanf(i8* getelementptr inbounds ([5 x i8], [5 x i8]* @.str, i64 0, i64 0), i32* %3, i32* %2)
  store i32 0, i32* %4, align 4
  br label %9

9:                                                ; preds = %23, %0
  %10 = load i32, i32* %4, align 4
  %11 = load i32, i32* %3, align 4
  %12 = icmp slt i32 %10, %11
  br i1 %12, label %13, label %26

13:                                               ; preds = %9
  %14 = load i32, i32* %2, align 4
  %15 = sext i32 %14 to i64
  %16 = mul i64 %15, 4
  %17 = call noalias i8* @malloc(i64 %16) #3
  %18 = bitcast i8* %17 to i32*
  %19 = getelementptr inbounds [100 x i32*], [100 x i32*]* %7, i64 0, i64 0
  %20 = load i32, i32* %4, align 4
  %21 = sext i32 %20 to i64
  %22 = getelementptr inbounds i32*, i32** %19, i64 %21
  store i32* %18, i32** %22, align 8
  br label %23

23:                                               ; preds = %13
  %24 = load i32, i32* %4, align 4
  %25 = add nsw i32 %24, 1
  store i32 %25, i32* %4, align 4
  br label %9

26:                                               ; preds = %9
  store i32 0, i32* %4, align 4
  br label %27

27:                                               ; preds = %50, %26
  %28 = load i32, i32* %4, align 4
  %29 = load i32, i32* %3, align 4
  %30 = icmp slt i32 %28, %29
  br i1 %30, label %31, label %53

31:                                               ; preds = %27
  store i32 0, i32* %5, align 4
  br label %32

32:                                               ; preds = %46, %31
  %33 = load i32, i32* %5, align 4
  %34 = load i32, i32* %2, align 4
  %35 = icmp slt i32 %33, %34
  br i1 %35, label %36, label %49

36:                                               ; preds = %32
  %37 = getelementptr inbounds [100 x i32*], [100 x i32*]* %7, i64 0, i64 0
  %38 = load i32, i32* %4, align 4
  %39 = sext i32 %38 to i64
  %40 = getelementptr inbounds i32*, i32** %37, i64 %39
  %41 = load i32*, i32** %40, align 8
  %42 = load i32, i32* %5, align 4
  %43 = sext i32 %42 to i64
  %44 = getelementptr inbounds i32, i32* %41, i64 %43
  %45 = call i32 (i8*, ...) @__isoc99_scanf(i8* getelementptr inbounds ([3 x i8], [3 x i8]* @.str.1, i64 0, i64 0), i32* %44)
  br label %46

46:                                               ; preds = %36
  %47 = load i32, i32* %5, align 4
  %48 = add nsw i32 %47, 1
  store i32 %48, i32* %5, align 4
  br label %32

49:                                               ; preds = %32
  br label %50

50:                                               ; preds = %49
  %51 = load i32, i32* %4, align 4
  %52 = add nsw i32 %51, 1
  store i32 %52, i32* %4, align 4
  br label %27

53:                                               ; preds = %27
  store i32 0, i32* %4, align 4
  br label %54

54:                                               ; preds = %109, %53
  %55 = load i32, i32* %4, align 4
  %56 = load i32, i32* %2, align 4
  %57 = icmp slt i32 %55, %56
  br i1 %57, label %58, label %112

58:                                               ; preds = %54
  %59 = load i32, i32* %4, align 4
  %60 = load i32, i32* %3, align 4
  %61 = sub nsw i32 %60, 1
  %62 = sub nsw i32 %59, %61
  %63 = icmp sge i32 %62, 0
  br i1 %63, label %64, label %86

64:                                               ; preds = %58
  store i32 0, i32* %6, align 4
  br label %65

65:                                               ; preds = %82, %64
  %66 = load i32, i32* %6, align 4
  %67 = load i32, i32* %3, align 4
  %68 = icmp slt i32 %66, %67
  br i1 %68, label %69, label %85

69:                                               ; preds = %65
  %70 = getelementptr inbounds [100 x i32*], [100 x i32*]* %7, i64 0, i64 0
  %71 = load i32, i32* %6, align 4
  %72 = sext i32 %71 to i64
  %73 = getelementptr inbounds i32*, i32** %70, i64 %72
  %74 = load i32*, i32** %73, align 8
  %75 = load i32, i32* %4, align 4
  %76 = load i32, i32* %6, align 4
  %77 = sub nsw i32 %75, %76
  %78 = sext i32 %77 to i64
  %79 = getelementptr inbounds i32, i32* %74, i64 %78
  %80 = load i32, i32* %79, align 4
  %81 = call i32 (i8*, ...) @printf(i8* getelementptr inbounds ([4 x i8], [4 x i8]* @.str.2, i64 0, i64 0), i32 %80)
  br label %82

82:                                               ; preds = %69
  %83 = load i32, i32* %6, align 4
  %84 = add nsw i32 %83, 1
  store i32 %84, i32* %6, align 4
  br label %65

85:                                               ; preds = %65
  br label %108

86:                                               ; preds = %58
  store i32 0, i32* %6, align 4
  br label %87

87:                                               ; preds = %104, %86
  %88 = load i32, i32* %6, align 4
  %89 = load i32, i32* %4, align 4
  %90 = icmp sle i32 %88, %89
  br i1 %90, label %91, label %107

91:                                               ; preds = %87
  %92 = getelementptr inbounds [100 x i32*], [100 x i32*]* %7, i64 0, i64 0
  %93 = load i32, i32* %6, align 4
  %94 = sext i32 %93 to i64
  %95 = getelementptr inbounds i32*, i32** %92, i64 %94
  %96 = load i32*, i32** %95, align 8
  %97 = load i32, i32* %4, align 4
  %98 = load i32, i32* %6, align 4
  %99 = sub nsw i32 %97, %98
  %100 = sext i32 %99 to i64
  %101 = getelementptr inbounds i32, i32* %96, i64 %100
  %102 = load i32, i32* %101, align 4
  %103 = call i32 (i8*, ...) @printf(i8* getelementptr inbounds ([4 x i8], [4 x i8]* @.str.2, i64 0, i64 0), i32 %102)
  br label %104

104:                                              ; preds = %91
  %105 = load i32, i32* %6, align 4
  %106 = add nsw i32 %105, 1
  store i32 %106, i32* %6, align 4
  br label %87

107:                                              ; preds = %87
  br label %108

108:                                              ; preds = %107, %85
  br label %109

109:                                              ; preds = %108
  %110 = load i32, i32* %4, align 4
  %111 = add nsw i32 %110, 1
  store i32 %111, i32* %4, align 4
  br label %54

112:                                              ; preds = %54
  store i32 1, i32* %4, align 4
  br label %113

113:                                              ; preds = %176, %112
  %114 = load i32, i32* %4, align 4
  %115 = load i32, i32* %3, align 4
  %116 = icmp slt i32 %114, %115
  br i1 %116, label %117, label %179

117:                                              ; preds = %113
  %118 = load i32, i32* %3, align 4
  %119 = load i32, i32* %4, align 4
  %120 = sub nsw i32 %118, %119
  %121 = load i32, i32* %2, align 4
  %122 = icmp sge i32 %120, %121
  br i1 %122, label %123, label %148

123:                                              ; preds = %117
  store i32 0, i32* %6, align 4
  br label %124

124:                                              ; preds = %144, %123
  %125 = load i32, i32* %6, align 4
  %126 = load i32, i32* %2, align 4
  %127 = icmp slt i32 %125, %126
  br i1 %127, label %128, label %147

128:                                              ; preds = %124
  %129 = getelementptr inbounds [100 x i32*], [100 x i32*]* %7, i64 0, i64 0
  %130 = load i32, i32* %4, align 4
  %131 = load i32, i32* %6, align 4
  %132 = add nsw i32 %130, %131
  %133 = sext i32 %132 to i64
  %134 = getelementptr inbounds i32*, i32** %129, i64 %133
  %135 = load i32*, i32** %134, align 8
  %136 = load i32, i32* %2, align 4
  %137 = load i32, i32* %6, align 4
  %138 = add nsw i32 1, %137
  %139 = sub nsw i32 %136, %138
  %140 = sext i32 %139 to i64
  %141 = getelementptr inbounds i32, i32* %135, i64 %140
  %142 = load i32, i32* %141, align 4
  %143 = call i32 (i8*, ...) @printf(i8* getelementptr inbounds ([4 x i8], [4 x i8]* @.str.2, i64 0, i64 0), i32 %142)
  br label %144

144:                                              ; preds = %128
  %145 = load i32, i32* %6, align 4
  %146 = add nsw i32 %145, 1
  store i32 %146, i32* %6, align 4
  br label %124

147:                                              ; preds = %124
  br label %175

148:                                              ; preds = %117
  store i32 0, i32* %6, align 4
  br label %149

149:                                              ; preds = %171, %148
  %150 = load i32, i32* %6, align 4
  %151 = load i32, i32* %3, align 4
  %152 = load i32, i32* %4, align 4
  %153 = sub nsw i32 %151, %152
  %154 = icmp slt i32 %150, %153
  br i1 %154, label %155, label %174

155:                                              ; preds = %149
  %156 = getelementptr inbounds [100 x i32*], [100 x i32*]* %7, i64 0, i64 0
  %157 = load i32, i32* %4, align 4
  %158 = load i32, i32* %6, align 4
  %159 = add nsw i32 %157, %158
  %160 = sext i32 %159 to i64
  %161 = getelementptr inbounds i32*, i32** %156, i64 %160
  %162 = load i32*, i32** %161, align 8
  %163 = load i32, i32* %2, align 4
  %164 = load i32, i32* %6, align 4
  %165 = add nsw i32 1, %164
  %166 = sub nsw i32 %163, %165
  %167 = sext i32 %166 to i64
  %168 = getelementptr inbounds i32, i32* %162, i64 %167
  %169 = load i32, i32* %168, align 4
  %170 = call i32 (i8*, ...) @printf(i8* getelementptr inbounds ([4 x i8], [4 x i8]* @.str.2, i64 0, i64 0), i32 %169)
  br label %171

171:                                              ; preds = %155
  %172 = load i32, i32* %6, align 4
  %173 = add nsw i32 %172, 1
  store i32 %173, i32* %6, align 4
  br label %149

174:                                              ; preds = %149
  br label %175

175:                                              ; preds = %174, %147
  br label %176

176:                                              ; preds = %175
  %177 = load i32, i32* %4, align 4
  %178 = add nsw i32 %177, 1
  store i32 %178, i32* %4, align 4
  br label %113

179:                                              ; preds = %113
  ret i32 0
}

declare dso_local i32 @__isoc99_scanf(i8*, ...) #1

; Function Attrs: nounwind
declare dso_local noalias i8* @malloc(i64) #2

declare dso_local i32 @printf(i8*, ...) #1


!llvm.module.flags = !{!0}
!llvm.ident = !{!1}

!0 = !{i32 1, !"wchar_size", i32 4}
!1 = !{!"clang version 10.0.0-4ubuntu1 "}
